(lp0
(lp1
I0
aI1300
aa(lp2
I14700
aI15000
aa(lp3
I84400
aI84900
aa(lp4
I154600
aI155100
aa(lp5
I224700
aI225200
aa(lp6
I294800
aI295200
aa(lp7
I364700
aI365200
aa(lp8
I434600
aI435000
aa(lp9
I504800
aI505300
aa(lp10
I575100
aI575600
aa(lp11
I645300
aI645800
aa(lp12
I715300
aI715800
aa(lp13
I780200
aI781000
aa(lp14
I784300
aI784800
aa(lp15
I854600
aI855000
aa(lp16
I863200
aI864900
aa(lp17
I922200
aI922700
aa.