(lp0
(lp1
I0
aI1600
aa(lp2
I38000
aI38500
aa(lp3
I138800
aI139300
aa(lp4
I236400
aI236500
aa(lp5
I240600
aI241100
aa(lp6
I340800
aI341300
aa(lp7
I349000
aI350700
aa(lp8
I351400
aI351700
aa(lp9
I351800
aI352000
aa(lp10
I353400
aI353500
aa(lp11
I439000
aI439400
aa(lp12
I530800
aI530900
aa(lp13
I539500
aI540000
aa(lp14
I641100
aI641600
aa(lp15
I741500
aI742000
aa(lp16
I782700
aI782800
aa(lp17
I842900
aI843400
aa(lp18
I943400
aI943900
aa(lp19
I1004100
aI1004200
aa(lp20
I1044900
aI1045400
aa(lp21
I1064800
aI1066700
aa(lp22
I1067000
aI1067500
aa(lp23
I1067800
aI1067900
aa(lp24
I1069500
aI1069600
aa.