(lp0
(lp1
I48600
aI48800
aa(lp2
I100700
aI100900
aa(lp3
I152800
aI153000
aa(lp4
I204900
aI205100
aa(lp5
I256800
aI257000
aa(lp6
I308900
aI309100
aa(lp7
I349300
aI350300
aa(lp8
I359000
aI359300
aa(lp9
I411200
aI411500
aa(lp10
I463300
aI463500
aa(lp11
I515500
aI515800
aa.