(lp0
(lp1
I0
aI2000
aa(lp2
I102200
aI102300
aa(lp3
I115200
aI115300
aa(lp4
I211800
aI211900
aa(lp5
I504500
aI504600
aa(lp6
I511800
aI512100
aa(lp7
I609300
aI609600
aa(lp8
I779000
aI779100
aa(lp9
I820500
aI821000
aa(lp10
I940600
aI941100
aa(lp11
I1123500
aI1123600
aa(lp12
I1146400
aI1146500
aa.