(lp0
(lp1
I0
aI1600
aa(lp2
I5700
aI5800
aa(lp3
I93600
aI94100
aa(lp4
I199300
aI199800
aa(lp5
I304200
aI304700
aa(lp6
I409700
aI410200
aa(lp7
I427500
aI427600
aa(lp8
I478500
aI478600
aa(lp9
I514900
aI515400
aa.