(lp0
(lp1
I0
aI500
aa(lp2
I5200
aI5300
aa(lp3
I5800
aI5900
aa(lp4
I6100
aI6200
aa(lp5
I7200
aI7300
aa(lp6
I7800
aI8100
aa(lp7
I8200
aI8300
aa(lp8
I8600
aI8700
aa(lp9
I9400
aI9500
aa(lp10
I10100
aI10200
aa(lp11
I11600
aI11700
aa(lp12
I12400
aI12500
aa(lp13
I13900
aI14000
aa(lp14
I15500
aI15600
aa(lp15
I16300
aI16600
aa(lp16
I16900
aI17000
aa(lp17
I17200
aI17300
aa(lp18
I17400
aI17900
aa(lp19
I18000
aI18100
aa(lp20
I96000
aI96300
aa(lp21
I132200
aI133800
aa(lp22
I171300
aI171700
aa(lp23
I250000
aI250300
aa(lp24
I328300
aI328600
aa(lp25
I407000
aI407300
aa(lp26
I485600
aI485900
aa(lp27
I564600
aI564900
aa(lp28
I643200
aI643500
aa(lp29
I721700
aI722100
aa(lp30
I800300
aI800600
aa(lp31
I900900
aI902300
aa(lp32
I902500
aI902600
aa(lp33
I2070700
aI2072400
aa(lp34
I2072500
aI2072800
aa.