(lp0
(lp1
I0
aI3600
aa(lp2
I3700
aI4400
aa(lp3
I4500
aI5200
aa(lp4
I5300
aI5600
aa(lp5
I5700
aI6300
aa(lp6
I6400
aI7300
aa(lp7
I7400
aI7500
aa(lp8
I7600
aI7700
aa(lp9
I7800
aI8500
aa(lp10
I37100
aI37600
aa(lp11
I53100
aI55100
aa(lp12
I116500
aI117000
aa(lp13
I198300
aI198800
aa(lp14
I280300
aI280800
aa(lp15
I362100
aI362500
aa(lp16
I444300
aI444700
aa.