(lp0
(lp1
I0
aI1600
aa(lp2
I1800
aI4000
aa(lp3
I55800
aI56300
aa(lp4
I130800
aI131300
aa(lp5
I135300
aI138200
aa(lp6
I201100
aI201600
aa(lp7
I275800
aI276300
aa(lp8
I350600
aI351000
aa(lp9
I399500
aI401100
aa(lp10
I423400
aI423900
aa.