(lp0
(lp1
I2300
aI2500
aa(lp2
I80800
aI81100
aa(lp3
I160000
aI160300
aa(lp4
I239200
aI239500
aa(lp5
I319000
aI319200
aa(lp6
I398100
aI398300
aa(lp7
I477400
aI477600
aa(lp8
I532500
aI533700
aa(lp9
I534200
aI534300
aa(lp10
I552800
aI553100
aa(lp11
I599400
aI599500
aa(lp12
I632600
aI632800
aa(lp13
I711400
aI711600
aa(lp14
I790600
aI790800
aa(lp15
I869800
aI870000
aa.