(lp0
(lp1
I0
aI2300
aa(lp2
I69900
aI70300
aa(lp3
I164300
aI164800
aa(lp4
I178000
aI180100
aa(lp5
I180500
aI180600
aa(lp6
I255500
aI256000
aa(lp7
I349700
aI350100
aa(lp8
I443600
aI444100
aa(lp9
I537600
aI538100
aa.