(lp0
(lp1
I0
aI1600
aa(lp2
I16700
aI17100
aa(lp3
I108000
aI108400
aa(lp4
I198700
aI199100
aa(lp5
I289600
aI290100
aa(lp6
I380500
aI381000
aa(lp7
I471900
aI472400
aa(lp8
I507800
aI509400
aa(lp9
I513700
aI515200
aa.