(lp0
(lp1
I0
aI700
aa(lp2
I29400
aI29700
aa(lp3
I74900
aI75100
aa(lp4
I120600
aI120800
aa(lp5
I127500
aI127600
aa(lp6
I165900
aI166200
aa(lp7
I211900
aI212100
aa(lp8
I257300
aI257600
aa(lp9
I303000
aI303200
aa(lp10
I349000
aI349200
aa(lp11
I379900
aI380800
aa(lp12
I393000
aI393200
aa(lp13
I438500
aI438700
aa(lp14
I484200
aI484500
aa(lp15
I530300
aI530500
aa.