(lp0
(lp1
I0
aI1300
aa(lp2
I32900
aI33000
aa(lp3
I74100
aI74600
aa(lp4
I135200
aI135300
aa(lp5
I173000
aI173500
aa(lp6
I272100
aI272600
aa(lp7
I371500
aI372000
aa(lp8
I379400
aI379500
aa(lp9
I469800
aI470300
aa(lp10
I568700
aI569100
aa(lp11
I650900
aI651000
aa(lp12
I658900
aI660800
aa(lp13
I661700
aI662500
aa(lp14
I662800
aI662900
aa(lp15
I669300
aI669800
aa(lp16
I763800
aI764300
aa.