(lp0
(lp1
I45300
aI45400
aa(lp2
I47100
aI47200
aa(lp3
I80100
aI80200
aa(lp4
I84700
aI84800
aa(lp5
I151800
aI151900
aa(lp6
I222300
aI222400
aa(lp7
I260600
aI260700
aa(lp8
I293900
aI294000
aa(lp9
I298800
aI298900
aa(lp10
I316200
aI316300
aa(lp11
I319600
aI319700
aa(lp12
I330300
aI330400
aa(lp13
I370700
aI370800
aa(lp14
I383800
aI383900
aa(lp15
I469200
aI469300
aa(lp16
I525200
aI525300
aa(lp17
I547700
aI547800
aa(lp18
I550300
aI550400
aa(lp19
I550700
aI550800
aa(lp20
I552300
aI552400
aa(lp21
I562300
aI562400
aa(lp22
I563100
aI563200
aa(lp23
I613100
aI613200
aa(lp24
I682800
aI682900
aa(lp25
I685700
aI685800
aa(lp26
I704200
aI704300
aa(lp27
I721600
aI721700
aa(lp28
I734600
aI734700
aa.