(lp0
(lp1
I0
aI3600
aa(lp2
I8100
aI8200
aa(lp3
I30900
aI31200
aa(lp4
I42500
aI43000
aa(lp5
I117100
aI117600
aa(lp6
I192200
aI192600
aa(lp7
I266600
aI267100
aa(lp8
I342000
aI342500
aa(lp9
I416400
aI416900
aa(lp10
I491300
aI491800
aa.