(lp0
(lp1
I0
aI2200
aa(lp2
I2400
aI2500
aa(lp3
I2600
aI2800
aa(lp4
I2900
aI3000
aa(lp5
I3200
aI3300
aa(lp6
I3500
aI3600
aa(lp7
I3700
aI3800
aa(lp8
I4000
aI4200
aa(lp9
I4800
aI4900
aa(lp10
I5000
aI5100
aa(lp11
I5300
aI5400
aa(lp12
I5500
aI6000
aa(lp13
I6200
aI6300
aa(lp14
I6500
aI6600
aa(lp15
I6700
aI6800
aa(lp16
I6900
aI7000
aa(lp17
I7100
aI7300
aa(lp18
I7400
aI7800
aa(lp19
I7900
aI8000
aa(lp20
I8600
aI8700
aa(lp21
I8800
aI8900
aa(lp22
I9100
aI9300
aa(lp23
I9600
aI9700
aa(lp24
I9800
aI9900
aa(lp25
I10000
aI10100
aa(lp26
I10300
aI10600
aa(lp27
I10700
aI10900
aa(lp28
I11100
aI11200
aa(lp29
I11300
aI11500
aa(lp30
I11600
aI11700
aa(lp31
I11900
aI12000
aa(lp32
I12600
aI12700
aa(lp33
I12800
aI13000
aa(lp34
I13200
aI13400
aa(lp35
I13500
aI13600
aa(lp36
I13700
aI14100
aa(lp37
I14500
aI15100
aa(lp38
I15200
aI15300
aa(lp39
I15500
aI15700
aa(lp40
I16100
aI16600
aa(lp41
I16900
aI17000
aa(lp42
I17300
aI17400
aa(lp43
I17500
aI17600
aa(lp44
I17800
aI17900
aa(lp45
I18000
aI18100
aa(lp46
I18200
aI18400
aa(lp47
I19000
aI19300
aa(lp48
I19400
aI19900
aa(lp49
I20400
aI20500
aa(lp50
I20600
aI20700
aa(lp51
I21200
aI21400
aa(lp52
I21700
aI21900
aa(lp53
I22100
aI22500
aa(lp54
I22700
aI22900
aa(lp55
I23000
aI23200
aa(lp56
I23400
aI23500
aa(lp57
I23700
aI23900
aa(lp58
I24000
aI24100
aa(lp59
I24200
aI24300
aa(lp60
I56800
aI57000
aa(lp61
I105700
aI105900
aa(lp62
I154400
aI154600
aa(lp63
I203100
aI203300
aa(lp64
I252000
aI252200
aa(lp65
I300500
aI300700
aa(lp66
I333200
aI334000
aa(lp67
I347100
aI347300
aa(lp68
I378300
aI379100
aa(lp69
I393700
aI393900
aa(lp70
I442500
aI442700
aa.