(lp0
(lp1
I0
aI3600
aa(lp2
I3800
aI3900
aa(lp3
I4500
aI4600
aa(lp4
I4900
aI5000
aa(lp5
I7200
aI7300
aa(lp6
I9200
aI9300
aa(lp7
I9500
aI9600
aa(lp8
I10000
aI10100
aa(lp9
I53800
aI54000
aa(lp10
I61600
aI62100
aa(lp11
I95900
aI96100
aa(lp12
I142000
aI142400
aa(lp13
I222100
aI222600
aa(lp14
I302800
aI303200
aa(lp15
I383300
aI383700
aa(lp16
I463500
aI463900
aa(lp17
I543500
aI544000
aa(lp18
I554400
aI564200
aa(lp19
I564300
aI565000
aa(lp20
I565100
aI565200
aa(lp21
I565500
aI565600
aa(lp22
I695000
aI696700
aa(lp23
I696800
aI696900
aa(lp24
I738400
aI738800
aa(lp25
I826500
aI826900
aa(lp26
I906700
aI907200
aa(lp27
I987700
aI988200
aa(lp28
I1067700
aI1068200
aa(lp29
I1148200
aI1148700
aa(lp30
I1228200
aI1228600
aa(lp31
I1309200
aI1309700
aa(lp32
I1388800
aI1389300
aa(lp33
I1469300
aI1469700
aa(lp34
I1549700
aI1550200
aa(lp35
I1630600
aI1631000
aa(lp36
I1710800
aI1711200
aa(lp37
I1791000
aI1791500
aa(lp38
I1871300
aI1871700
aa(lp39
I1951700
aI1952200
aa(lp40
I2032100
aI2032600
aa(lp41
I2112400
aI2112900
aa(lp42
I2193000
aI2193500
aa(lp43
I2273800
aI2274300
aa(lp44
I2353900
aI2354400
aa(lp45
I2434300
aI2434800
aa.