(lp0
(lp1
I0
aI1600
aa(lp2
I16700
aI17100
aa(lp3
I107900
aI108400
aa(lp4
I198600
aI199100
aa(lp5
I289600
aI290100
aa(lp6
I380500
aI381000
aa(lp7
I471900
aI472400
aa(lp8
I507700
aI509700
aa(lp9
I509800
aI509900
aa(lp10
I510000
aI510200
aa(lp11
I510600
aI510700
aa(lp12
I511000
aI511100
aa(lp13
I513600
aI515500
aa(lp14
I515800
aI515900
aa(lp15
I516300
aI516400
aa.