(lp0
(lp1
I7800
aI7900
aa(lp2
I19000
aI19100
aa(lp3
I22000
aI22100
aa(lp4
I34600
aI34700
aa(lp5
I42500
aI42600
aa(lp6
I42900
aI43000
aa(lp7
I45900
aI46000
aa(lp8
I60100
aI60200
aa(lp9
I62100
aI62200
aa(lp10
I62500
aI62600
aa(lp11
I68000
aI68100
aa(lp12
I71300
aI71400
aa(lp13
I72900
aI73000
aa(lp14
I90800
aI90900
aa(lp15
I104100
aI104200
aa(lp16
I107600
aI107700
aa(lp17
I110100
aI110200
aa(lp18
I111600
aI111700
aa(lp19
I114700
aI114800
aa(lp20
I118100
aI118200
aa(lp21
I126400
aI126500
aa(lp22
I134500
aI134700
aa(lp23
I135800
aI135900
aa(lp24
I156300
aI156400
aa(lp25
I156800
aI156900
aa(lp26
I159100
aI159200
aa(lp27
I160400
aI160500
aa(lp28
I161300
aI161400
aa(lp29
I163000
aI163100
aa(lp30
I168600
aI168700
aa(lp31
I189100
aI189200
aa(lp32
I206100
aI206200
aa(lp33
I212700
aI212800
aa(lp34
I220400
aI220500
aa(lp35
I222100
aI222200
aa(lp36
I233200
aI233300
aa(lp37
I234400
aI234500
aa(lp38
I235000
aI235100
aa(lp39
I237500
aI237600
aa(lp40
I238800
aI238900
aa(lp41
I250300
aI250400
aa(lp42
I262800
aI262900
aa(lp43
I264600
aI264700
aa(lp44
I274000
aI274100
aa(lp45
I277500
aI277600
aa(lp46
I285000
aI285100
aa(lp47
I293200
aI293300
aa(lp48
I302800
aI302900
aa(lp49
I307100
aI307200
aa(lp50
I332700
aI332800
aa(lp51
I336900
aI337000
aa(lp52
I347500
aI347600
aa(lp53
I347700
aI347800
aa(lp54
I350200
aI350300
aa(lp55
I355700
aI355800
aa(lp56
I409300
aI409400
aa(lp57
I450800
aI450900
aa(lp58
I462900
aI463000
aa(lp59
I464000
aI464100
aa(lp60
I473900
aI474000
aa(lp61
I479400
aI479500
aa(lp62
I479700
aI479800
aa(lp63
I490400
aI490500
aa(lp64
I495200
aI495300
aa(lp65
I524700
aI524800
aa(lp66
I533900
aI534000
aa(lp67
I534100
aI534200
aa(lp68
I560800
aI560900
aa(lp69
I565500
aI565600
aa(lp70
I610900
aI611000
aa(lp71
I611600
aI611700
aa(lp72
I612300
aI612400
aa(lp73
I612900
aI613000
aa(lp74
I613400
aI613500
aa(lp75
I619600
aI619700
aa(lp76
I620900
aI621000
aa(lp77
I624300
aI624400
aa(lp78
I625900
aI626000
aa(lp79
I627700
aI627800
aa(lp80
I635300
aI635400
aa(lp81
I652100
aI652200
aa(lp82
I652500
aI652600
aa(lp83
I654400
aI654500
aa(lp84
I683800
aI683900
aa(lp85
I692500
aI692600
aa(lp86
I705700
aI705800
aa(lp87
I708400
aI708500
aa(lp88
I709900
aI710000
aa(lp89
I710300
aI710400
aa(lp90
I712700
aI712800
aa(lp91
I716200
aI716300
aa(lp92
I720200
aI720300
aa(lp93
I721700
aI721800
aa(lp94
I726700
aI726800
aa(lp95
I737500
aI737600
aa(lp96
I740100
aI740200
aa(lp97
I741100
aI741200
aa(lp98
I752800
aI752900
aa(lp99
I758300
aI758400
aa(lp100
I767100
aI767200
aa(lp101
I783300
aI783400
aa(lp102
I815200
aI815300
aa(lp103
I817000
aI817100
aa(lp104
I830800
aI830900
aa(lp105
I863000
aI863100
aa(lp106
I870100
aI870200
aa(lp107
I875000
aI875100
aa(lp108
I880500
aI880600
aa(lp109
I889500
aI889600
aa(lp110
I898500
aI898600
aa(lp111
I900000
aI900100
aa(lp112
I914600
aI914700
aa(lp113
I959600
aI959700
aa(lp114
I971700
aI971800
aa(lp115
I975200
aI975300
aa(lp116
I978100
aI978200
aa(lp117
I979800
aI979900
aa(lp118
I988300
aI988400
aa(lp119
I988600
aI988700
aa(lp120
I991400
aI991500
aa(lp121
I992900
aI993000
aa(lp122
I993900
aI994000
aa(lp123
I1008100
aI1008200
aa(lp124
I1019100
aI1019200
aa(lp125
I1032600
aI1032700
aa(lp126
I1041300
aI1041400
aa(lp127
I1045300
aI1045400
aa(lp128
I1048500
aI1048600
aa(lp129
I1058300
aI1058400
aa(lp130
I1059600
aI1059700
aa(lp131
I1063600
aI1063700
aa(lp132
I1074500
aI1074600
aa(lp133
I1078600
aI1078700
aa(lp134
I1090500
aI1090600
aa(lp135
I1091900
aI1092000
aa(lp136
I1111600
aI1111700
aa(lp137
I1116400
aI1116500
aa(lp138
I1119700
aI1119800
aa(lp139
I1131200
aI1131300
aa(lp140
I1147100
aI1147200
aa(lp141
I1152300
aI1152400
aa(lp142
I1162500
aI1162600
aa(lp143
I1176900
aI1177000
aa(lp144
I1200400
aI1200500
aa(lp145
I1204600
aI1204700
aa(lp146
I1209200
aI1209300
aa(lp147
I1210100
aI1210200
aa(lp148
I1214200
aI1214300
aa(lp149
I1217900
aI1218000
aa(lp150
I1220000
aI1220100
aa(lp151
I1223000
aI1223100
aa(lp152
I1232900
aI1233000
aa(lp153
I1242200
aI1242300
aa(lp154
I1244800
aI1244900
aa.