(lp0
(lp1
I0
aI500
aa(lp2
I700
aI800
aa(lp3
I900
aI1100
aa(lp4
I1300
aI1800
aa(lp5
I1900
aI2100
aa(lp6
I2300
aI2400
aa(lp7
I2500
aI2600
aa(lp8
I2700
aI2900
aa(lp9
I3000
aI3500
aa(lp10
I3600
aI3900
aa(lp11
I22900
aI23200
aa(lp12
I37500
aI38400
aa(lp13
I70400
aI70600
aa(lp14
I119800
aI120100
aa(lp15
I169400
aI169600
aa(lp16
I218300
aI218500
aa.