(lp0
(lp1
I0
aI1500
aa(lp2
I65600
aI66100
aa(lp3
I165600
aI166100
aa(lp4
I264600
aI265000
aa(lp5
I277800
aI277900
aa(lp6
I363800
aI364300
aa(lp7
I462700
aI463200
aa(lp8
I480600
aI482900
aa(lp9
I483000
aI483100
aa(lp10
I483500
aI485800
aa(lp11
I485900
aI486300
aa(lp12
I556600
aI557100
aa(lp13
I571900
aI572000
aa(lp14
I655700
aI656200
aa(lp15
I686300
aI688400
aa(lp16
I688700
aI688900
aa(lp17
I689100
aI689300
aa(lp18
I751900
aI752400
aa(lp19
I851500
aI852000
aa(lp20
I951400
aI951800
aa(lp21
I1050500
aI1051000
aa(lp22
I1150000
aI1150500
aa(lp23
I1170800
aI1173100
aa(lp24
I1173500
aI1173700
aa(lp25
I1174900
aI1175000
aa.