(lp0
(lp1
I0
aI3300
aa(lp2
I3400
aI7000
aa(lp3
I7100
aI7600
aa(lp4
I7700
aI8600
aa(lp5
I8700
aI9200
aa(lp6
I9300
aI9400
aa(lp7
I48000
aI48100
aa(lp8
I59600
aI60000
aa(lp9
I149300
aI149800
aa(lp10
I239100
aI239600
aa(lp11
I328900
aI329400
aa(lp12
I397600
aI397800
aa(lp13
I418000
aI418500
aa(lp14
I507500
aI508000
aa.