(lp0
(lp1
I0
aI2000
aa(lp2
I53300
aI53800
aa(lp3
I135400
aI135900
aa(lp4
I188900
aI189100
aa(lp5
I216600
aI217100
aa(lp6
I298600
aI299000
aa(lp7
I380100
aI380500
aa(lp8
I462700
aI463100
aa(lp9
I543900
aI544400
aa(lp10
I625800
aI626200
aa(lp11
I681800
aI683600
aa(lp12
I683700
aI683800
aa(lp13
I683900
aI684100
aa(lp14
I705100
aI705600
aa.