(lp0
(lp1
I0
aI1500
aa(lp2
I63700
aI64900
aa(lp3
I65000
aI65100
aa(lp4
I65600
aI65700
aa(lp5
I451100
aI452300
aa(lp6
I452400
aI452500
aa(lp7
I452700
aI452800
aa(lp8
I452900
aI453000
aa(lp9
I657300
aI658500
aa(lp10
I658700
aI659000
aa(lp11
I659200
aI659300
aa(lp12
I1398200
aI1398500
aa(lp13
I1565700
aI1567400
aa(lp14
I1567500
aI1567700
aa(lp15
I1641600
aI1641900
aa(lp16
I1719100
aI1719500
aa(lp17
I1797000
aI1797400
aa(lp18
I1875100
aI1875400
aa(lp19
I1953000
aI1953300
aa(lp20
I2030600
aI2030900
aa(lp21
I2108500
aI2108800
aa(lp22
I2175900
aI2177300
aa(lp23
I2177400
aI2177500
aa(lp24
I2177800
aI2177900
aa(lp25
I2183700
aI2184000
aa(lp26
I2260900
aI2261300
aa(lp27
I2338800
aI2339100
aa(lp28
I2413400
aI2414500
aa(lp29
I2414600
aI2414700
aa(lp30
I2415100
aI2415200
aa(lp31
I2492400
aI2492700
aa.