(lp0
(lp1
I0
aI7000
aa(lp2
I7100
aI9000
aa(lp3
I9100
aI9900
aa(lp4
I10000
aI17500
aa(lp5
I80800
aI81300
aa(lp6
I169400
aI169800
aa(lp7
I258000
aI258500
aa(lp8
I346700
aI347200
aa(lp9
I435200
aI435700
aa(lp10
I524600
aI525100
aa(lp11
I614100
aI614600
aa(lp12
I703400
aI703900
aa(lp13
I792500
aI793000
aa(lp14
I882200
aI882700
aa.