(lp0
(lp1
I0
aI3600
aa(lp2
I73200
aI73700
aa(lp3
I144700
aI145100
aa(lp4
I216100
aI216500
aa(lp5
I287900
aI288300
aa(lp6
I359100
aI359500
aa(lp7
I421800
aI423500
aa(lp8
I429100
aI429500
aa(lp9
I499800
aI500300
aa(lp10
I521600
aI523400
aa(lp11
I569500
aI570000
aa.