(lp0
(lp1
I0
aI2100
aa(lp2
I58300
aI58800
aa(lp3
I164700
aI165200
aa(lp4
I223000
aI224600
aa(lp5
I224700
aI224900
aa(lp6
I225000
aI225700
aa(lp7
I267700
aI268200
aa(lp8
I374300
aI374800
aa(lp9
I443200
aI443300
aa(lp10
I481200
aI481700
aa.