(lp0
(lp1
I0
aI1400
aa(lp2
I49400
aI49900
aa(lp3
I153500
aI154000
aa(lp4
I256500
aI257000
aa(lp5
I268800
aI270900
aa(lp6
I271400
aI271500
aa(lp7
I271600
aI272400
aa(lp8
I272500
aI272700
aa(lp9
I356500
aI357000
aa(lp10
I459300
aI459800
aa.