(lp0
(lp1
I0
aI1900
aa(lp2
I43900
aI44400
aa(lp3
I121000
aI121500
aa(lp4
I198400
aI198900
aa(lp5
I275600
aI276000
aa(lp6
I352800
aI353200
aa(lp7
I429700
aI430200
aa(lp8
I506700
aI507200
aa(lp9
I583600
aI584100
aa(lp10
I660800
aI661300
aa(lp11
I737800
aI738200
aa.