(lp0
(lp1
I0
aI700
aa(lp2
I5200
aI5400
aa(lp3
I86500
aI87000
aa(lp4
I168300
aI168800
aa(lp5
I250000
aI250500
aa(lp6
I332100
aI332600
aa(lp7
I414400
aI414900
aa(lp8
I416100
aI417800
aa(lp9
I417900
aI418100
aa(lp10
I418200
aI418300
aa(lp11
I451600
aI451800
aa.