(lp0
(lp1
I26400
aI26900
aa(lp2
I100500
aI100900
aa(lp3
I174800
aI175300
aa(lp4
I249600
aI250000
aa(lp5
I324400
aI324900
aa(lp6
I398700
aI399100
aa(lp7
I473100
aI473600
aa(lp8
I517200
aI519000
aa(lp9
I545200
aI545600
aa.